; Function Attrs: nounwind uwtable
define dso_local ptr @PyType_GetQualName(ptr noundef readonly captures(none) %0) local_unnamed_addr #1 {
  %2 = getelementptr inbounds nuw i8, ptr %0, i64 168
  %3 = load i64, ptr %2, align 8, !tbaa !108
  %4 = and i64 %3, 512
  %.not.i = icmp eq i64 %4, 0
  br i1 %.not.i, label %12, label %5

5:                                                ; preds = %1
  %6 = getelementptr inbounds nuw i8, ptr %0, i64 872
  %7 = load ptr, ptr %6, align 8, !tbaa !228
  %8 = load i32, ptr %7, align 8, !tbaa !102
  %9 = icmp slt i32 %8, 0
  br i1 %9, label %type_qualname.exit, label %10

10:                                               ; preds = %5
  %11 = add nuw i32 %8, 1
  store i32 %11, ptr %7, align 8, !tbaa !102
  br label %type_qualname.exit

12:                                               ; preds = %1
  %13 = getelementptr inbounds nuw i8, ptr %0, i64 24
  %14 = load ptr, ptr %13, align 8, !tbaa !227
  %15 = tail call ptr @strrchr(ptr noundef nonnull dereferenceable(1) %14, i32 noundef 46) #26
  %16 = icmp eq ptr %15, null
  %17 = getelementptr i8, ptr %15, i64 1
  %.0.i.i = select i1 %16, ptr %14, ptr %17
  %18 = tail call ptr @PyUnicode_FromString(ptr noundef %.0.i.i) #24
  br label %type_qualname.exit

type_qualname.exit:                               ; preds = %5, %10, %12
  %.0.i = phi ptr [ %18, %12 ], [ %7, %5 ], [ %7, %10 ]
  ret ptr %.0.i
}